; ModuleID = '36/399.c'
source_filename = "36/399.c"
target datalayout = "e-m:e-p270:32:32-p271:32:32-p272:64:64-i64:64-f80:128-n8:16:32:64-S128"
target triple = "x86_64-pc-linux-gnu"

@.str = private unnamed_addr constant [3 x i8] c"NO\00", align 1
@.str.1 = private unnamed_addr constant [4 x i8] c"YES\00", align 1
@.str.2 = private unnamed_addr constant [4 x i8] c"NO\0A\00", align 1

; Function Attrs: noinline nounwind uwtable
define dso_local i32 @comp(i8* %0, i8* %1, i32 %2, i32 %3) #0 {
  %5 = alloca i32, align 4
  %6 = alloca i8*, align 8
  %7 = alloca i8*, align 8
  %8 = alloca i32, align 4
  %9 = alloca i32, align 4
  store i8* %0, i8** %6, align 8
  store i8* %1, i8** %7, align 8
  store i32 %2, i32* %8, align 4
  store i32 %3, i32* %9, align 4
  %10 = load i8*, i8** %6, align 8
  %11 = load i32, i32* %8, align 4
  %12 = sext i32 %11 to i64
  %13 = getelementptr inbounds i8, i8* %10, i64 %12
  %14 = load i8, i8* %13, align 1
  %15 = sext i8 %14 to i32
  %16 = load i8*, i8** %7, align 8
  %17 = load i32, i32* %9, align 4
  %18 = sext i32 %17 to i64
  %19 = getelementptr inbounds i8, i8* %16, i64 %18
  %20 = load i8, i8* %19, align 1
  %21 = sext i8 %20 to i32
  %22 = icmp eq i32 %15, %21
  br i1 %22, label %23, label %28

23:                                               ; preds = %4
  %24 = load i8*, i8** %7, align 8
  %25 = load i32, i32* %9, align 4
  %26 = sext i32 %25 to i64
  %27 = getelementptr inbounds i8, i8* %24, i64 %26
  store i8 0, i8* %27, align 1
  store i32 1, i32* %5, align 4
  br label %73

28:                                               ; preds = %4
  %29 = load i8*, i8** %6, align 8
  %30 = load i32, i32* %8, align 4
  %31 = sext i32 %30 to i64
  %32 = getelementptr inbounds i8, i8* %29, i64 %31
  %33 = load i8, i8* %32, align 1
  %34 = sext i8 %33 to i32
  %35 = load i8*, i8** %7, align 8
  %36 = load i32, i32* %9, align 4
  %37 = sext i32 %36 to i64
  %38 = getelementptr inbounds i8, i8* %35, i64 %37
  %39 = load i8, i8* %38, align 1
  %40 = sext i8 %39 to i32
  %41 = icmp ne i32 %34, %40
  br i1 %41, label %42, label %53

42:                                               ; preds = %28
  %43 = load i32, i32* %9, align 4
  %44 = icmp sgt i32 %43, 0
  br i1 %44, label %45, label %53

45:                                               ; preds = %42
  %46 = load i32, i32* %9, align 4
  %47 = sub nsw i32 %46, 1
  store i32 %47, i32* %9, align 4
  %48 = load i8*, i8** %6, align 8
  %49 = load i8*, i8** %7, align 8
  %50 = load i32, i32* %8, align 4
  %51 = load i32, i32* %9, align 4
  %52 = call i32 @comp(i8* %48, i8* %49, i32 %50, i32 %51)
  store i32 %52, i32* %5, align 4
  br label %73

53:                                               ; preds = %42, %28
  %54 = load i8*, i8** %6, align 8
  %55 = load i32, i32* %8, align 4
  %56 = sext i32 %55 to i64
  %57 = getelementptr inbounds i8, i8* %54, i64 %56
  %58 = load i8, i8* %57, align 1
  %59 = sext i8 %58 to i32
  %60 = load i8*, i8** %7, align 8
  %61 = load i32, i32* %9, align 4
  %62 = sext i32 %61 to i64
  %63 = getelementptr inbounds i8, i8* %60, i64 %62
  %64 = load i8, i8* %63, align 1
  %65 = sext i8 %64 to i32
  %66 = icmp ne i32 %59, %65
  br i1 %66, label %67, label %71

67:                                               ; preds = %53
  %68 = load i32, i32* %9, align 4
  %69 = icmp eq i32 %68, 0
  br i1 %69, label %70, label %71

70:                                               ; preds = %67
  store i32 0, i32* %5, align 4
  br label %73

71:                                               ; preds = %67, %53
  br label %72

72:                                               ; preds = %71
  br label %73

73:                                               ; preds = %23, %45, %70, %72
  %74 = load i32, i32* %5, align 4
  ret i32 %74
}

; Function Attrs: noinline nounwind uwtable
define dso_local void @main() #0 {
  %1 = alloca i32, align 4
  %2 = alloca i32, align 4
  %3 = alloca i32, align 4
  %4 = alloca i32, align 4
  %5 = alloca i32, align 4
  %6 = alloca [100 x i8], align 16
  %7 = alloca [100 x i8], align 16
  %8 = alloca i8, align 1
  store i32 0, i32* %1, align 4
  br label %9

9:                                                ; preds = %19, %0
  %10 = call i32 @getchar()
  %11 = trunc i32 %10 to i8
  store i8 %11, i8* %8, align 1
  %12 = sext i8 %11 to i32
  %13 = icmp ne i32 %12, 32
  br i1 %13, label %14, label %22

14:                                               ; preds = %9
  %15 = load i8, i8* %8, align 1
  %16 = load i32, i32* %1, align 4
  %17 = sext i32 %16 to i64
  %18 = getelementptr inbounds [100 x i8], [100 x i8]* %6, i64 0, i64 %17
  store i8 %15, i8* %18, align 1
  br label %19

19:                                               ; preds = %14
  %20 = load i32, i32* %1, align 4
  %21 = add nsw i32 %20, 1
  store i32 %21, i32* %1, align 4
  br label %9

22:                                               ; preds = %9
  %23 = getelementptr inbounds [100 x i8], [100 x i8]* %7, i64 0, i64 0
  %24 = call i32 (i8*, ...) bitcast (i32 (...)* @gets to i32 (i8*, ...)*)(i8* %23)
  %25 = load i32, i32* %1, align 4
  %26 = sub nsw i32 %25, 1
  store i32 %26, i32* %1, align 4
  %27 = getelementptr inbounds [100 x i8], [100 x i8]* %7, i64 0, i64 0
  %28 = call i64 @strlen(i8* %27) #3
  %29 = sub i64 %28, 1
  %30 = trunc i64 %29 to i32
  store i32 %30, i32* %2, align 4
  %31 = load i32, i32* %1, align 4
  %32 = load i32, i32* %2, align 4
  %33 = icmp ne i32 %31, %32
  br i1 %33, label %34, label %36

34:                                               ; preds = %22
  %35 = call i32 (i8*, ...) @printf(i8* getelementptr inbounds ([3 x i8], [3 x i8]* @.str, i64 0, i64 0))
  br label %66

36:                                               ; preds = %22
  %37 = load i32, i32* %1, align 4
  store i32 %37, i32* %5, align 4
  store i32 0, i32* %3, align 4
  store i32 0, i32* %4, align 4
  br label %38

38:                                               ; preds = %51, %36
  %39 = load i32, i32* %3, align 4
  %40 = load i32, i32* %5, align 4
  %41 = icmp sle i32 %39, %40
  br i1 %41, label %42, label %54

42:                                               ; preds = %38
  %43 = getelementptr inbounds [100 x i8], [100 x i8]* %6, i64 0, i64 0
  %44 = getelementptr inbounds [100 x i8], [100 x i8]* %7, i64 0, i64 0
  %45 = load i32, i32* %3, align 4
  %46 = load i32, i32* %1, align 4
  %47 = call i32 @comp(i8* %43, i8* %44, i32 %45, i32 %46)
  %48 = icmp eq i32 %47, 0
  br i1 %48, label %49, label %50

49:                                               ; preds = %42
  store i32 1, i32* %4, align 4
  br label %54

50:                                               ; preds = %42
  br label %51

51:                                               ; preds = %50
  %52 = load i32, i32* %3, align 4
  %53 = add nsw i32 %52, 1
  store i32 %53, i32* %3, align 4
  br label %38

54:                                               ; preds = %49, %38
  %55 = load i32, i32* %4, align 4
  %56 = icmp eq i32 %55, 0
  br i1 %56, label %57, label %59

57:                                               ; preds = %54
  %58 = call i32 (i8*, ...) @printf(i8* getelementptr inbounds ([4 x i8], [4 x i8]* @.str.1, i64 0, i64 0))
  br label %65

59:                                               ; preds = %54
  %60 = load i32, i32* %4, align 4
  %61 = icmp eq i32 %60, 1
  br i1 %61, label %62, label %64

62:                                               ; preds = %59
  %63 = call i32 (i8*, ...) @printf(i8* getelementptr inbounds ([4 x i8], [4 x i8]* @.str.2, i64 0, i64 0))
  br label %64

64:                                               ; preds = %62, %59
  br label %65

65:                                               ; preds = %64, %57
  br label %66

66:                                               ; preds = %65, %34
  ret void
}

declare dso_local i32 @getchar() #1

declare dso_local i32 @gets(...) #1

; Function Attrs: nounwind readonly
declare dso_local i64 @strlen(i8*) #2

declare dso_local i32 @printf(i8*, ...) #1


!llvm.module.flags = !{!0}
!llvm.ident = !{!1}

!0 = !{i32 1, !"wchar_size", i32 4}
!1 = !{!"clang version 10.0.0-4ubuntu1 "}
